; Function Attrs: nounwind uwtable
define internal noundef ptr @readline_set_completion_display_matches_hook(ptr noundef %0, ptr noundef readonly captures(none) %1, i64 noundef %2) #0 {
  %or.cond = icmp ult i64 %2, 2
  br i1 %or.cond, label %6, label %4

4:                                                ; preds = %3
  %5 = tail call i32 @_PyArg_CheckPositional(ptr noundef nonnull @.str.29, i64 noundef %2, i64 noundef 0, i64 noundef 1) #14
  %.not = icmp eq i32 %5, 0
  br i1 %.not, label %15, label %6

6:                                                ; preds = %3, %4
  %7 = icmp slt i64 %2, 1
  br i1 %7, label %10, label %8

8:                                                ; preds = %6
  %9 = load ptr, ptr %1, align 8, !tbaa !41
  br label %10

10:                                               ; preds = %6, %8
  %.0 = phi ptr [ @_Py_NoneStruct, %6 ], [ %9, %8 ]
  %11 = tail call ptr @PyModule_GetState(ptr noundef %0) #14
  %12 = tail call fastcc noundef ptr @set_hook(ptr noundef nonnull @.str.44, ptr noundef %11, ptr noundef %.0)
  %13 = load ptr, ptr %11, align 8, !tbaa !37
  %.not.i = icmp eq ptr %13, null
  %14 = select i1 %.not.i, ptr null, ptr @on_completion_display_matches_hook
  store ptr %14, ptr @rl_completion_display_matches_hook, align 8, !tbaa !19
  br label %15

15:                                               ; preds = %4, %10
  %.08 = phi ptr [ %12, %10 ], [ null, %4 ]
  ret ptr %.08
}